target datalayout = "e-m:e-p270:32:32-p271:32:32-p272:64:64-i64:64-i128:128-f80:128-n8:16:32:64-S128"
target triple = "x86_64-pc-linux-gnu"

%"class.std::__cxx11::basic_string" = type { %"struct.std::__cxx11::basic_string<char>::_Alloc_hider", i64, %union.anon }
%"struct.std::__cxx11::basic_string<char>::_Alloc_hider" = type { ptr }
%union.anon = type { i64, [8 x i8] }
%"class.std::vector.8" = type { %"struct.std::_Vector_base.9" }
%"struct.std::_Vector_base.9" = type { %"struct.std::_Vector_base<int, std::allocator<int>>::_Vector_impl" }
%"struct.std::_Vector_base<int, std::allocator<int>>::_Vector_impl" = type { %"struct.std::_Vector_base<int, std::allocator<int>>::_Vector_impl_data" }
%"struct.std::_Vector_base<int, std::allocator<int>>::_Vector_impl_data" = type { ptr, ptr, ptr }
%"struct.(anonymous namespace)::SmtrModule" = type { %"class.Yosys::Functional::IR", %"struct.(anonymous namespace)::SmtrScope", %"class.std::__cxx11::basic_string", %"class.(anonymous namespace)::SmtrStruct", %"class.(anonymous namespace)::SmtrStruct", %"class.(anonymous namespace)::SmtrStruct" }
%"class.Yosys::Functional::IR" = type { %"struct.Yosys::ComputeGraph", %"class.Yosys::hashlib::dict.140", %"class.Yosys::hashlib::dict.147", %"class.Yosys::hashlib::dict.154" }
%"struct.Yosys::ComputeGraph" = type { %"class.Yosys::hashlib::idict.113", %"class.std::vector.121", %"class.std::vector.8", %"class.Yosys::hashlib::dict.126", %"class.Yosys::hashlib::dict.133" }
%"class.Yosys::hashlib::idict.113" = type { %"class.Yosys::hashlib::pool.114" }
%"class.Yosys::hashlib::pool.114" = type <{ %"class.std::vector.8", %"class.std::vector.115", [8 x i8] }>
%"class.std::vector.115" = type { %"struct.std::_Vector_base.116" }
%"struct.std::_Vector_base.116" = type { %"struct.std::_Vector_base<Yosys::hashlib::pool<Yosys::Functional::IR::NodeData>::entry_t, std::allocator<Yosys::hashlib::pool<Yosys::Functional::IR::NodeData>::entry_t>>::_Vector_impl" }
%"struct.std::_Vector_base<Yosys::hashlib::pool<Yosys::Functional::IR::NodeData>::entry_t, std::allocator<Yosys::hashlib::pool<Yosys::Functional::IR::NodeData>::entry_t>>::_Vector_impl" = type { %"struct.std::_Vector_base<Yosys::hashlib::pool<Yosys::Functional::IR::NodeData>::entry_t, std::allocator<Yosys::hashlib::pool<Yosys::Functional::IR::NodeData>::entry_t>>::_Vector_impl_data" }
%"struct.std::_Vector_base<Yosys::hashlib::pool<Yosys::Functional::IR::NodeData>::entry_t, std::allocator<Yosys::hashlib::pool<Yosys::Functional::IR::NodeData>::entry_t>>::_Vector_impl_data" = type { ptr, ptr, ptr }
%"class.std::vector.121" = type { %"struct.std::_Vector_base.122" }
%"struct.std::_Vector_base.122" = type { %"struct.std::_Vector_base<Yosys::ComputeGraph<Yosys::Functional::IR::NodeData, Yosys::Functional::IR::Attr, Yosys::RTLIL::IdString, std::tuple<Yosys::RTLIL::IdString, Yosys::RTLIL::IdString, bool>>::Node, std::allocator<Yosys::ComputeGraph<Yosys::Functional::IR::NodeData, Yosys::Functional::IR::Attr, Yosys::RTLIL::IdString, std::tuple<Yosys::RTLIL::IdString, Yosys::RTLIL::IdString, bool>>::Node>>::_Vector_impl" }
%"struct.std::_Vector_base<Yosys::ComputeGraph<Yosys::Functional::IR::NodeData, Yosys::Functional::IR::Attr, Yosys::RTLIL::IdString, std::tuple<Yosys::RTLIL::IdString, Yosys::RTLIL::IdString, bool>>::Node, std::allocator<Yosys::ComputeGraph<Yosys::Functional::IR::NodeData, Yosys::Functional::IR::Attr, Yosys::RTLIL::IdString, std::tuple<Yosys::RTLIL::IdString, Yosys::RTLIL::IdString, bool>>::Node>>::_Vector_impl" = type { %"struct.std::_Vector_base<Yosys::ComputeGraph<Yosys::Functional::IR::NodeData, Yosys::Functional::IR::Attr, Yosys::RTLIL::IdString, std::tuple<Yosys::RTLIL::IdString, Yosys::RTLIL::IdString, bool>>::Node, std::allocator<Yosys::ComputeGraph<Yosys::Functional::IR::NodeData, Yosys::Functional::IR::Attr, Yosys::RTLIL::IdString, std::tuple<Yosys::RTLIL::IdString, Yosys::RTLIL::IdString, bool>>::Node>>::_Vector_impl_data" }
%"struct.std::_Vector_base<Yosys::ComputeGraph<Yosys::Functional::IR::NodeData, Yosys::Functional::IR::Attr, Yosys::RTLIL::IdString, std::tuple<Yosys::RTLIL::IdString, Yosys::RTLIL::IdString, bool>>::Node, std::allocator<Yosys::ComputeGraph<Yosys::Functional::IR::NodeData, Yosys::Functional::IR::Attr, Yosys::RTLIL::IdString, std::tuple<Yosys::RTLIL::IdString, Yosys::RTLIL::IdString, bool>>::Node>>::_Vector_impl_data" = type { ptr, ptr, ptr }
%"class.Yosys::hashlib::dict.126" = type <{ %"class.std::vector.8", %"class.std::vector.127", [8 x i8] }>
%"class.std::vector.127" = type { %"struct.std::_Vector_base.128" }
%"struct.std::_Vector_base.128" = type { %"struct.std::_Vector_base<Yosys::hashlib::dict<std::tuple<Yosys::RTLIL::IdString, Yosys::RTLIL::IdString, bool>, int>::entry_t, std::allocator<Yosys::hashlib::dict<std::tuple<Yosys::RTLIL::IdString, Yosys::RTLIL::IdString, bool>, int>::entry_t>>::_Vector_impl" }
%"struct.std::_Vector_base<Yosys::hashlib::dict<std::tuple<Yosys::RTLIL::IdString, Yosys::RTLIL::IdString, bool>, int>::entry_t, std::allocator<Yosys::hashlib::dict<std::tuple<Yosys::RTLIL::IdString, Yosys::RTLIL::IdString, bool>, int>::entry_t>>::_Vector_impl" = type { %"struct.std::_Vector_base<Yosys::hashlib::dict<std::tuple<Yosys::RTLIL::IdString, Yosys::RTLIL::IdString, bool>, int>::entry_t, std::allocator<Yosys::hashlib::dict<std::tuple<Yosys::RTLIL::IdString, Yosys::RTLIL::IdString, bool>, int>::entry_t>>::_Vector_impl_data" }
%"struct.std::_Vector_base<Yosys::hashlib::dict<std::tuple<Yosys::RTLIL::IdString, Yosys::RTLIL::IdString, bool>, int>::entry_t, std::allocator<Yosys::hashlib::dict<std::tuple<Yosys::RTLIL::IdString, Yosys::RTLIL::IdString, bool>, int>::entry_t>>::_Vector_impl_data" = type { ptr, ptr, ptr }
%"class.Yosys::hashlib::dict.133" = type <{ %"class.std::vector.8", %"class.std::vector.134", [8 x i8] }>
%"class.std::vector.134" = type { %"struct.std::_Vector_base.135" }
%"struct.std::_Vector_base.135" = type { %"struct.std::_Vector_base<Yosys::hashlib::dict<int, Yosys::RTLIL::IdString>::entry_t, std::allocator<Yosys::hashlib::dict<int, Yosys::RTLIL::IdString>::entry_t>>::_Vector_impl" }
%"struct.std::_Vector_base<Yosys::hashlib::dict<int, Yosys::RTLIL::IdString>::entry_t, std::allocator<Yosys::hashlib::dict<int, Yosys::RTLIL::IdString>::entry_t>>::_Vector_impl" = type { %"struct.std::_Vector_base<Yosys::hashlib::dict<int, Yosys::RTLIL::IdString>::entry_t, std::allocator<Yosys::hashlib::dict<int, Yosys::RTLIL::IdString>::entry_t>>::_Vector_impl_data" }
%"struct.std::_Vector_base<Yosys::hashlib::dict<int, Yosys::RTLIL::IdString>::entry_t, std::allocator<Yosys::hashlib::dict<int, Yosys::RTLIL::IdString>::entry_t>>::_Vector_impl_data" = type { ptr, ptr, ptr }
%"class.Yosys::hashlib::dict.140" = type <{ %"class.std::vector.8", %"class.std::vector.141", [8 x i8] }>
%"class.std::vector.141" = type { %"struct.std::_Vector_base.142" }
%"struct.std::_Vector_base.142" = type { %"struct.std::_Vector_base<Yosys::hashlib::dict<std::pair<Yosys::RTLIL::IdString, Yosys::RTLIL::IdString>, Yosys::Functional::IRInput>::entry_t, std::allocator<Yosys::hashlib::dict<std::pair<Yosys::RTLIL::IdString, Yosys::RTLIL::IdString>, Yosys::Functional::IRInput>::entry_t>>::_Vector_impl" }
%"struct.std::_Vector_base<Yosys::hashlib::dict<std::pair<Yosys::RTLIL::IdString, Yosys::RTLIL::IdString>, Yosys::Functional::IRInput>::entry_t, std::allocator<Yosys::hashlib::dict<std::pair<Yosys::RTLIL::IdString, Yosys::RTLIL::IdString>, Yosys::Functional::IRInput>::entry_t>>::_Vector_impl" = type { %"struct.std::_Vector_base<Yosys::hashlib::dict<std::pair<Yosys::RTLIL::IdString, Yosys::RTLIL::IdString>, Yosys::Functional::IRInput>::entry_t, std::allocator<Yosys::hashlib::dict<std::pair<Yosys::RTLIL::IdString, Yosys::RTLIL::IdString>, Yosys::Functional::IRInput>::entry_t>>::_Vector_impl_data" }
%"struct.std::_Vector_base<Yosys::hashlib::dict<std::pair<Yosys::RTLIL::IdString, Yosys::RTLIL::IdString>, Yosys::Functional::IRInput>::entry_t, std::allocator<Yosys::hashlib::dict<std::pair<Yosys::RTLIL::IdString, Yosys::RTLIL::IdString>, Yosys::Functional::IRInput>::entry_t>>::_Vector_impl_data" = type { ptr, ptr, ptr }
%"class.Yosys::hashlib::dict.147" = type <{ %"class.std::vector.8", %"class.std::vector.148", [8 x i8] }>
%"class.std::vector.148" = type { %"struct.std::_Vector_base.149" }
%"struct.std::_Vector_base.149" = type { %"struct.std::_Vector_base<Yosys::hashlib::dict<std::pair<Yosys::RTLIL::IdString, Yosys::RTLIL::IdString>, Yosys::Functional::IROutput>::entry_t, std::allocator<Yosys::hashlib::dict<std::pair<Yosys::RTLIL::IdString, Yosys::RTLIL::IdString>, Yosys::Functional::IROutput>::entry_t>>::_Vector_impl" }
%"struct.std::_Vector_base<Yosys::hashlib::dict<std::pair<Yosys::RTLIL::IdString, Yosys::RTLIL::IdString>, Yosys::Functional::IROutput>::entry_t, std::allocator<Yosys::hashlib::dict<std::pair<Yosys::RTLIL::IdString, Yosys::RTLIL::IdString>, Yosys::Functional::IROutput>::entry_t>>::_Vector_impl" = type { %"struct.std::_Vector_base<Yosys::hashlib::dict<std::pair<Yosys::RTLIL::IdString, Yosys::RTLIL::IdString>, Yosys::Functional::IROutput>::entry_t, std::allocator<Yosys::hashlib::dict<std::pair<Yosys::RTLIL::IdString, Yosys::RTLIL::IdString>, Yosys::Functional::IROutput>::entry_t>>::_Vector_impl_data" }
%"struct.std::_Vector_base<Yosys::hashlib::dict<std::pair<Yosys::RTLIL::IdString, Yosys::RTLIL::IdString>, Yosys::Functional::IROutput>::entry_t, std::allocator<Yosys::hashlib::dict<std::pair<Yosys::RTLIL::IdString, Yosys::RTLIL::IdString>, Yosys::Functional::IROutput>::entry_t>>::_Vector_impl_data" = type { ptr, ptr, ptr }
%"class.Yosys::hashlib::dict.154" = type <{ %"class.std::vector.8", %"class.std::vector.155", [8 x i8] }>
%"class.std::vector.155" = type { %"struct.std::_Vector_base.156" }
%"struct.std::_Vector_base.156" = type { %"struct.std::_Vector_base<Yosys::hashlib::dict<std::pair<Yosys::RTLIL::IdString, Yosys::RTLIL::IdString>, Yosys::Functional::IRState>::entry_t, std::allocator<Yosys::hashlib::dict<std::pair<Yosys::RTLIL::IdString, Yosys::RTLIL::IdString>, Yosys::Functional::IRState>::entry_t>>::_Vector_impl" }
%"struct.std::_Vector_base<Yosys::hashlib::dict<std::pair<Yosys::RTLIL::IdString, Yosys::RTLIL::IdString>, Yosys::Functional::IRState>::entry_t, std::allocator<Yosys::hashlib::dict<std::pair<Yosys::RTLIL::IdString, Yosys::RTLIL::IdString>, Yosys::Functional::IRState>::entry_t>>::_Vector_impl" = type { %"struct.std::_Vector_base<Yosys::hashlib::dict<std::pair<Yosys::RTLIL::IdString, Yosys::RTLIL::IdString>, Yosys::Functional::IRState>::entry_t, std::allocator<Yosys::hashlib::dict<std::pair<Yosys::RTLIL::IdString, Yosys::RTLIL::IdString>, Yosys::Functional::IRState>::entry_t>>::_Vector_impl_data" }
%"struct.std::_Vector_base<Yosys::hashlib::dict<std::pair<Yosys::RTLIL::IdString, Yosys::RTLIL::IdString>, Yosys::Functional::IRState>::entry_t, std::allocator<Yosys::hashlib::dict<std::pair<Yosys::RTLIL::IdString, Yosys::RTLIL::IdString>, Yosys::Functional::IRState>::entry_t>>::_Vector_impl_data" = type { ptr, ptr, ptr }
%"struct.(anonymous namespace)::SmtrScope" = type { %"class.Yosys::Functional::Scope" }
%"class.Yosys::Functional::Scope" = type { ptr, i8, [7 x i8], %"class.Yosys::hashlib::pool.161", %"class.Yosys::hashlib::dict.168" }
%"class.Yosys::hashlib::pool.161" = type <{ %"class.std::vector.8", %"class.std::vector.162", [8 x i8] }>
%"class.std::vector.162" = type { %"struct.std::_Vector_base.163" }
%"struct.std::_Vector_base.163" = type { %"struct.std::_Vector_base<Yosys::hashlib::pool<std::__cxx11::basic_string<char>>::entry_t, std::allocator<Yosys::hashlib::pool<std::__cxx11::basic_string<char>>::entry_t>>::_Vector_impl" }
%"struct.std::_Vector_base<Yosys::hashlib::pool<std::__cxx11::basic_string<char>>::entry_t, std::allocator<Yosys::hashlib::pool<std::__cxx11::basic_string<char>>::entry_t>>::_Vector_impl" = type { %"struct.std::_Vector_base<Yosys::hashlib::pool<std::__cxx11::basic_string<char>>::entry_t, std::allocator<Yosys::hashlib::pool<std::__cxx11::basic_string<char>>::entry_t>>::_Vector_impl_data" }
%"struct.std::_Vector_base<Yosys::hashlib::pool<std::__cxx11::basic_string<char>>::entry_t, std::allocator<Yosys::hashlib::pool<std::__cxx11::basic_string<char>>::entry_t>>::_Vector_impl_data" = type { ptr, ptr, ptr }
%"class.Yosys::hashlib::dict.168" = type <{ %"class.std::vector.8", %"class.std::vector.169", [8 x i8] }>
%"class.std::vector.169" = type { %"struct.std::_Vector_base.170" }
%"struct.std::_Vector_base.170" = type { %"struct.std::_Vector_base<Yosys::hashlib::dict<int, std::__cxx11::basic_string<char>>::entry_t, std::allocator<Yosys::hashlib::dict<int, std::__cxx11::basic_string<char>>::entry_t>>::_Vector_impl" }
%"struct.std::_Vector_base<Yosys::hashlib::dict<int, std::__cxx11::basic_string<char>>::entry_t, std::allocator<Yosys::hashlib::dict<int, std::__cxx11::basic_string<char>>::entry_t>>::_Vector_impl" = type { %"struct.std::_Vector_base<Yosys::hashlib::dict<int, std::__cxx11::basic_string<char>>::entry_t, std::allocator<Yosys::hashlib::dict<int, std::__cxx11::basic_string<char>>::entry_t>>::_Vector_impl_data" }
%"struct.std::_Vector_base<Yosys::hashlib::dict<int, std::__cxx11::basic_string<char>>::entry_t, std::allocator<Yosys::hashlib::dict<int, std::__cxx11::basic_string<char>>::entry_t>>::_Vector_impl_data" = type { ptr, ptr, ptr }
%"class.(anonymous namespace)::SmtrStruct" = type { %"class.Yosys::hashlib::idict", %"class.std::vector.175", ptr, %"struct.(anonymous namespace)::SmtrScope", %"class.std::__cxx11::basic_string" }
%"class.Yosys::hashlib::idict" = type { %"class.Yosys::hashlib::pool.80" }
%"class.Yosys::hashlib::pool.80" = type <{ %"class.std::vector.8", %"class.std::vector.81", [8 x i8] }>
%"class.std::vector.81" = type { %"struct.std::_Vector_base.82" }
%"struct.std::_Vector_base.82" = type { %"struct.std::_Vector_base<Yosys::hashlib::pool<Yosys::RTLIL::IdString>::entry_t, std::allocator<Yosys::hashlib::pool<Yosys::RTLIL::IdString>::entry_t>>::_Vector_impl" }
%"struct.std::_Vector_base<Yosys::hashlib::pool<Yosys::RTLIL::IdString>::entry_t, std::allocator<Yosys::hashlib::pool<Yosys::RTLIL::IdString>::entry_t>>::_Vector_impl" = type { %"struct.std::_Vector_base<Yosys::hashlib::pool<Yosys::RTLIL::IdString>::entry_t, std::allocator<Yosys::hashlib::pool<Yosys::RTLIL::IdString>::entry_t>>::_Vector_impl_data" }
%"struct.std::_Vector_base<Yosys::hashlib::pool<Yosys::RTLIL::IdString>::entry_t, std::allocator<Yosys::hashlib::pool<Yosys::RTLIL::IdString>::entry_t>>::_Vector_impl_data" = type { ptr, ptr, ptr }
%"class.std::vector.175" = type { %"struct.std::_Vector_base.176" }
%"struct.std::_Vector_base.176" = type { %"struct.std::_Vector_base<(anonymous namespace)::SmtrStruct::Field, std::allocator<(anonymous namespace)::SmtrStruct::Field>>::_Vector_impl" }
%"struct.std::_Vector_base<(anonymous namespace)::SmtrStruct::Field, std::allocator<(anonymous namespace)::SmtrStruct::Field>>::_Vector_impl" = type { %"struct.std::_Vector_base<(anonymous namespace)::SmtrStruct::Field, std::allocator<(anonymous namespace)::SmtrStruct::Field>>::_Vector_impl_data" }
%"struct.std::_Vector_base<(anonymous namespace)::SmtrStruct::Field, std::allocator<(anonymous namespace)::SmtrStruct::Field>>::_Vector_impl_data" = type { ptr, ptr, ptr }

; Function Attrs: mustprogress nounwind uwtable
define linkonce_odr void @_ZNSt15__new_allocatorIcE10deallocateEPcm(ptr noundef nonnull align 1 dereferenceable(1) %0, ptr noundef %1, i64 noundef %2) #6 comdat align 2 {
  %4 = alloca ptr, align 8
  %5 = alloca ptr, align 8
  %6 = alloca i64, align 8
  store ptr %0, ptr %4, align 8, !tbaa !19
  store ptr %1, ptr %5, align 8, !tbaa !17
  store i64 %2, ptr %6, align 8, !tbaa !32
  %7 = load ptr, ptr %5, align 8, !tbaa !17
  %8 = load i64, ptr %6, align 8, !tbaa !32
  %9 = mul i64 %8, 1
  call void @_ZdlPvm(ptr noundef %7, i64 noundef %9) #20
  ret void
}

; Function Attrs: mustprogress nounwind uwtable
define linkonce_odr noundef ptr @_ZNSt19__ptr_traits_ptr_toIPKcS0_Lb0EE10pointer_toERS0_(ptr noundef nonnull align 1 dereferenceable(1) %0) #6 comdat align 2 {
  %2 = alloca ptr, align 8
  store ptr %0, ptr %2, align 8, !tbaa !17
  %3 = load ptr, ptr %2, align 8, !tbaa !17
  ret ptr %3
}

; Function Attrs: mustprogress uwtable
define linkonce_odr void @_ZNSt16allocator_traitsISaIcEE10deallocateERS0_Pcm(ptr noundef nonnull align 1 dereferenceable(1) %0, ptr noundef %1, i64 noundef %2) #4 comdat align 2 {
  %4 = alloca ptr, align 8
  %5 = alloca ptr, align 8
  %6 = alloca i64, align 8
  store ptr %0, ptr %4, align 8, !tbaa !13
  store ptr %1, ptr %5, align 8, !tbaa !17
  store i64 %2, ptr %6, align 8, !tbaa !32
  %7 = load ptr, ptr %4, align 8, !tbaa !13
  %8 = load ptr, ptr %5, align 8, !tbaa !17
  %9 = load i64, ptr %6, align 8, !tbaa !32
  call void @_ZNSt15__new_allocatorIcE10deallocateEPcm(ptr noundef nonnull align 1 dereferenceable(1) %7, ptr noundef %8, i64 noundef %9)
  ret void
}

; Function Attrs: mustprogress nounwind uwtable
define available_externally noundef nonnull align 1 dereferenceable(1) ptr @_ZNSt7__cxx1112basic_stringIcSt11char_traitsIcESaIcEE16_M_get_allocatorEv(ptr noundef nonnull align 8 dereferenceable(32) %0) #6 align 2 {
  %2 = alloca ptr, align 8
  store ptr %0, ptr %2, align 8, !tbaa !15
  %3 = load ptr, ptr %2, align 8
  %4 = getelementptr inbounds nuw %"class.std::__cxx11::basic_string", ptr %3, i32 0, i32 0
  ret ptr %4
}

; Function Attrs: mustprogress nounwind uwtable
define available_externally noundef ptr @_ZNKSt7__cxx1112basic_stringIcSt11char_traitsIcESaIcEE13_M_local_dataEv(ptr noundef nonnull align 8 dereferenceable(32) %0) #6 align 2 {
  %2 = alloca ptr, align 8
  store ptr %0, ptr %2, align 8, !tbaa !15
  %3 = load ptr, ptr %2, align 8
  %4 = getelementptr inbounds nuw %"class.std::__cxx11::basic_string", ptr %3, i32 0, i32 2
  %5 = getelementptr inbounds [16 x i8], ptr %4, i64 0, i64 0
  %6 = call noundef ptr @_ZNSt19__ptr_traits_ptr_toIPKcS0_Lb0EE10pointer_toERS0_(ptr noundef nonnull align 1 dereferenceable(1) %5) #3
  ret ptr %6
}

; Function Attrs: mustprogress nounwind uwtable
define available_externally noundef ptr @_ZNKSt7__cxx1112basic_stringIcSt11char_traitsIcESaIcEE7_M_dataEv(ptr noundef nonnull align 8 dereferenceable(32) %0) #6 align 2 {
  %2 = alloca ptr, align 8
  store ptr %0, ptr %2, align 8, !tbaa !15
  %3 = load ptr, ptr %2, align 8
  %4 = getelementptr inbounds nuw %"class.std::__cxx11::basic_string", ptr %3, i32 0, i32 0
  %5 = getelementptr inbounds nuw %"struct.std::__cxx11::basic_string<char>::_Alloc_hider", ptr %4, i32 0, i32 0
  %6 = load ptr, ptr %5, align 8, !tbaa !50
  ret ptr %6
}

; Function Attrs: mustprogress nounwind uwtable
define available_externally void @_ZNSt7__cxx1112basic_stringIcSt11char_traitsIcESaIcEE10_M_destroyEm(ptr noundef nonnull align 8 dereferenceable(32) %0, i64 noundef %1) #6 align 2 personality ptr @__gxx_personality_v0 {
  %3 = alloca ptr, align 8
  %4 = alloca i64, align 8
  store ptr %0, ptr %3, align 8, !tbaa !15
  store i64 %1, ptr %4, align 8, !tbaa !32
  %5 = load ptr, ptr %3, align 8
  %6 = invoke noundef nonnull align 1 dereferenceable(1) ptr @_ZNSt7__cxx1112basic_stringIcSt11char_traitsIcESaIcEE16_M_get_allocatorEv(ptr noundef nonnull align 8 dereferenceable(32) %5)
          to label %7 unwind label %12

7:                                                ; preds = %2
  %8 = call noundef ptr @_ZNKSt7__cxx1112basic_stringIcSt11char_traitsIcESaIcEE7_M_dataEv(ptr noundef nonnull align 8 dereferenceable(32) %5)
  %9 = load i64, ptr %4, align 8, !tbaa !32
  %10 = add i64 %9, 1
  invoke void @_ZNSt16allocator_traitsISaIcEE10deallocateERS0_Pcm(ptr noundef nonnull align 1 dereferenceable(1) %6, ptr noundef %8, i64 noundef %10)
          to label %11 unwind label %12

11:                                               ; preds = %7
  ret void

12:                                               ; preds = %7, %2
  %13 = landingpad { ptr, i32 }
          catch ptr null
  %14 = extractvalue { ptr, i32 } %13, 0
  call void @__clang_call_terminate(ptr %14) #19
  unreachable
}

; Function Attrs: mustprogress uwtable
define available_externally noundef zeroext i1 @_ZNKSt7__cxx1112basic_stringIcSt11char_traitsIcESaIcEE11_M_is_localEv(ptr noundef nonnull align 8 dereferenceable(32) %0) #4 align 2 {
  %2 = alloca i1, align 1
  %3 = alloca ptr, align 8
  store ptr %0, ptr %3, align 8, !tbaa !15
  %4 = load ptr, ptr %3, align 8
  %5 = call noundef ptr @_ZNKSt7__cxx1112basic_stringIcSt11char_traitsIcESaIcEE7_M_dataEv(ptr noundef nonnull align 8 dereferenceable(32) %4)
  %6 = call noundef ptr @_ZNKSt7__cxx1112basic_stringIcSt11char_traitsIcESaIcEE13_M_local_dataEv(ptr noundef nonnull align 8 dereferenceable(32) %4)
  %7 = icmp eq ptr %5, %6
  br i1 %7, label %8, label %14

8:                                                ; preds = %1
  %9 = getelementptr inbounds nuw %"class.std::__cxx11::basic_string", ptr %4, i32 0, i32 1
  %10 = load i64, ptr %9, align 8, !tbaa !57
  %11 = icmp ugt i64 %10, 15
  br i1 %11, label %12, label %13

12:                                               ; preds = %8
  unreachable

13:                                               ; preds = %8
  store i1 true, ptr %2, align 1
  br label %15

14:                                               ; preds = %1
  store i1 false, ptr %2, align 1
  br label %15

15:                                               ; preds = %14, %13
  %16 = load i1, ptr %2, align 1
  ret i1 %16
}

; Function Attrs: noinline noreturn nounwind uwtable
define linkonce_odr hidden void @__clang_call_terminate(ptr noundef %0) #11 comdat {
  %2 = call ptr @__cxa_begin_catch(ptr %0) #3
  call void @_ZSt9terminatev() #19
  unreachable
}

; Function Attrs: mustprogress nounwind uwtable
define linkonce_odr void @_ZNSt15__new_allocatorIcED2Ev(ptr noundef nonnull align 1 dereferenceable(1) %0) unnamed_addr #6 comdat align 2 {
  %2 = alloca ptr, align 8
  store ptr %0, ptr %2, align 8, !tbaa !19
  ret void
}

; Function Attrs: mustprogress uwtable
define available_externally void @_ZNSt7__cxx1112basic_stringIcSt11char_traitsIcESaIcEE10_M_disposeEv(ptr noundef nonnull align 8 dereferenceable(32) %0) #4 align 2 {
  %2 = alloca ptr, align 8
  store ptr %0, ptr %2, align 8, !tbaa !15
  %3 = load ptr, ptr %2, align 8
  %4 = call noundef zeroext i1 @_ZNKSt7__cxx1112basic_stringIcSt11char_traitsIcESaIcEE11_M_is_localEv(ptr noundef nonnull align 8 dereferenceable(32) %3)
  br i1 %4, label %8, label %5

5:                                                ; preds = %1
  %6 = getelementptr inbounds nuw %"class.std::__cxx11::basic_string", ptr %3, i32 0, i32 2
  %7 = load i64, ptr %6, align 8, !tbaa !52
  call void @_ZNSt7__cxx1112basic_stringIcSt11char_traitsIcESaIcEE10_M_destroyEm(ptr noundef nonnull align 8 dereferenceable(32) %3, i64 noundef %7) #3
  br label %8

8:                                                ; preds = %5, %1
  ret void
}

; Function Attrs: mustprogress nounwind uwtable
define available_externally void @_ZNSt7__cxx1112basic_stringIcSt11char_traitsIcESaIcEED2Ev(ptr noundef nonnull align 8 dereferenceable(32) %0) unnamed_addr #6 align 2 personality ptr @__gxx_personality_v0 {
  %2 = alloca ptr, align 8
  store ptr %0, ptr %2, align 8, !tbaa !15
  %3 = load ptr, ptr %2, align 8
  invoke void @_ZNSt7__cxx1112basic_stringIcSt11char_traitsIcESaIcEE10_M_disposeEv(ptr noundef nonnull align 8 dereferenceable(32) %3)
          to label %4 unwind label %6

4:                                                ; preds = %1
  %5 = getelementptr inbounds nuw %"class.std::__cxx11::basic_string", ptr %3, i32 0, i32 0
  call void @_ZNSt15__new_allocatorIcED2Ev(ptr noundef nonnull align 8 dereferenceable(8) %5) #3
  ret void

6:                                                ; preds = %1
  %7 = landingpad { ptr, i32 }
          catch ptr null
  %8 = extractvalue { ptr, i32 } %7, 0
  call void @__clang_call_terminate(ptr %8) #19
  unreachable
}

; Function Attrs: inlinehint mustprogress nounwind uwtable
define internal void @_ZN12_GLOBAL__N_110SmtrModuleD2Ev(ptr noundef nonnull align 8 dereferenceable(1288) %0) unnamed_addr #7 align 2 {
  %2 = alloca ptr, align 8
  store ptr %0, ptr %2, align 8, !tbaa !72
  %3 = load ptr, ptr %2, align 8
  %4 = getelementptr inbounds nuw %"struct.(anonymous namespace)::SmtrModule", ptr %3, i32 0, i32 5
  call void @_ZN12_GLOBAL__N_110SmtrStructD2Ev(ptr noundef nonnull align 8 dereferenceable(248) %4) #3
  %5 = getelementptr inbounds nuw %"struct.(anonymous namespace)::SmtrModule", ptr %3, i32 0, i32 4
  call void @_ZN12_GLOBAL__N_110SmtrStructD2Ev(ptr noundef nonnull align 8 dereferenceable(248) %5) #3
  %6 = getelementptr inbounds nuw %"struct.(anonymous namespace)::SmtrModule", ptr %3, i32 0, i32 3
  call void @_ZN12_GLOBAL__N_110SmtrStructD2Ev(ptr noundef nonnull align 8 dereferenceable(248) %6) #3
  %7 = getelementptr inbounds nuw %"struct.(anonymous namespace)::SmtrModule", ptr %3, i32 0, i32 2
  call void @_ZNSt7__cxx1112basic_stringIcSt11char_traitsIcESaIcEED2Ev(ptr noundef nonnull align 8 dereferenceable(32) %7) #3
  %8 = getelementptr inbounds nuw %"struct.(anonymous namespace)::SmtrModule", ptr %3, i32 0, i32 1
  call void @_ZN5Yosys10Functional5ScopeIiED2Ev(ptr noundef nonnull align 8 dereferenceable(128) %8) #3
  %9 = getelementptr inbounds nuw %"struct.(anonymous namespace)::SmtrModule", ptr %3, i32 0, i32 0
  call void @_ZN5Yosys10Functional2IRD2Ev(ptr noundef nonnull align 8 dereferenceable(384) %9) #3
  ret void
}