; Function Attrs: inlinehint mustprogress nounwind uwtable
define internal fastcc void @_ZN12_GLOBAL__N_110SmtrModuleD2Ev(ptr noundef nonnull align 8 dereferenceable(1288) %0) unnamed_addr #4 align 2 personality ptr @__gxx_personality_v0 {
  %2 = getelementptr inbounds nuw i8, ptr %0, i64 1040
  tail call fastcc void @_ZN12_GLOBAL__N_110SmtrStructD2Ev(ptr noundef nonnull align 8 dereferenceable(248) %2) #26
  %3 = getelementptr inbounds nuw i8, ptr %0, i64 792
  tail call fastcc void @_ZN12_GLOBAL__N_110SmtrStructD2Ev(ptr noundef nonnull align 8 dereferenceable(248) %3) #26
  %4 = getelementptr inbounds nuw i8, ptr %0, i64 544
  tail call fastcc void @_ZN12_GLOBAL__N_110SmtrStructD2Ev(ptr noundef nonnull align 8 dereferenceable(248) %4) #26
  %5 = getelementptr inbounds nuw i8, ptr %0, i64 512
  %6 = load ptr, ptr %5, align 8, !tbaa !17
  %7 = getelementptr inbounds nuw i8, ptr %0, i64 528
  %8 = icmp eq ptr %6, %7
  br i1 %8, label %_ZNKSt7__cxx1112basic_stringIcSt11char_traitsIcESaIcEE11_M_is_localEv.exit.thread.i.i, label %_ZNKSt7__cxx1112basic_stringIcSt11char_traitsIcESaIcEE11_M_is_localEv.exit.i.i

_ZNKSt7__cxx1112basic_stringIcSt11char_traitsIcESaIcEE11_M_is_localEv.exit.thread.i.i: ; preds = %1
  %9 = getelementptr inbounds nuw i8, ptr %0, i64 520
  %10 = load i64, ptr %9, align 8, !tbaa !22
  %11 = icmp ult i64 %10, 16
  tail call void @llvm.assume(i1 %11)
  br label %_ZNSt7__cxx1112basic_stringIcSt11char_traitsIcESaIcEED2Ev.exit

_ZNKSt7__cxx1112basic_stringIcSt11char_traitsIcESaIcEE11_M_is_localEv.exit.i.i: ; preds = %1
  %12 = load i64, ptr %7, align 8, !tbaa !23
  %13 = add i64 %12, 1
  tail call void @_ZdlPvm(ptr noundef %6, i64 noundef %13) #27
  br label %_ZNSt7__cxx1112basic_stringIcSt11char_traitsIcESaIcEED2Ev.exit

_ZNSt7__cxx1112basic_stringIcSt11char_traitsIcESaIcEED2Ev.exit: ; preds = %_ZNKSt7__cxx1112basic_stringIcSt11char_traitsIcESaIcEE11_M_is_localEv.exit.thread.i.i, %_ZNKSt7__cxx1112basic_stringIcSt11char_traitsIcESaIcEE11_M_is_localEv.exit.i.i
  %14 = getelementptr inbounds nuw i8, ptr %0, i64 384
  tail call void @_ZN5Yosys10Functional5ScopeIiED2Ev(ptr noundef nonnull align 8 dereferenceable(128) %14) #26
  tail call void @_ZN5Yosys10Functional2IRD2Ev(ptr noundef nonnull align 8 dereferenceable(384) %0) #26
  ret void
}